; Function Attrs: mustprogress uwtable
define void @_ZN6casadi8FunctionC2ERKNSt7__cxx1112basic_stringIcSt11char_traitsIcESaIcEEERKSt6vectorINS_6MatrixINS_6SXElemEEESaISC_EESG_RKSt3mapIS6_NS_11GenericTypeESt4lessIS6_ESaISt4pairIS7_SI_EEE(ptr noundef nonnull align 8 dereferenceable(8) initializes((0, 8)) %0, ptr noundef nonnull align 8 dereferenceable(32) %1, ptr noundef nonnull align 8 dereferenceable(24) %2, ptr noundef nonnull align 8 dereferenceable(24) %3, ptr noundef nonnull align 8 dereferenceable(48) %4) unnamed_addr #4 align 2 personality ptr @__gxx_personality_v0 {
  %6 = alloca %"class.std::vector", align 8
  %7 = alloca %"class.std::vector", align 8
  store ptr null, ptr %0, align 8, !tbaa !22
  call void @llvm.lifetime.start.p0(i64 24, ptr nonnull %6) #30
  call void @llvm.memset.p0.i64(ptr noundef nonnull align 8 dereferenceable(24) %6, i8 0, i64 24, i1 false)
  call void @llvm.lifetime.start.p0(i64 24, ptr nonnull %7) #30
  call void @llvm.memset.p0.i64(ptr noundef nonnull align 8 dereferenceable(24) %7, i8 0, i64 24, i1 false)
  invoke void @_ZN6casadi8Function9constructERKNSt7__cxx1112basic_stringIcSt11char_traitsIcESaIcEEERKSt6vectorINS_6MatrixINS_6SXElemEEESaISC_EESG_RKS9_IS6_SaIS6_EESK_RKSt3mapIS6_NS_11GenericTypeESt4lessIS6_ESaISt4pairIS7_SM_EEE(ptr noundef nonnull align 8 dereferenceable(8) %0, ptr noundef nonnull align 8 dereferenceable(32) %1, ptr noundef nonnull align 8 dereferenceable(24) %2, ptr noundef nonnull align 8 dereferenceable(24) %3, ptr noundef nonnull align 8 dereferenceable(24) %6, ptr noundef nonnull align 8 dereferenceable(24) %7, ptr noundef nonnull align 8 dereferenceable(48) %4)
          to label %8 unwind label %47

8:                                                ; preds = %5
  %9 = load ptr, ptr %7, align 8, !tbaa !15
  %10 = getelementptr inbounds nuw i8, ptr %7, i64 8
  %11 = load ptr, ptr %10, align 8, !tbaa !18
  %.not4.i.i.i.i = icmp eq ptr %9, %11
  br i1 %.not4.i.i.i.i, label %_ZSt8_DestroyIPNSt7__cxx1112basic_stringIcSt11char_traitsIcESaIcEEES5_EvT_S7_RSaIT0_E.exit.i, label %.lr.ph.i.i.i.i

.lr.ph.i.i.i.i:                                   ; preds = %8, %_ZSt8_DestroyINSt7__cxx1112basic_stringIcSt11char_traitsIcESaIcEEEEvPT_.exit.i.i.i.i
  %.05.i.i.i.i = phi ptr [ %20, %_ZSt8_DestroyINSt7__cxx1112basic_stringIcSt11char_traitsIcESaIcEEEEvPT_.exit.i.i.i.i ], [ %9, %8 ]
  %12 = load ptr, ptr %.05.i.i.i.i, align 8, !tbaa !11
  %13 = getelementptr inbounds nuw i8, ptr %.05.i.i.i.i, i64 16
  %14 = icmp eq ptr %12, %13
  br i1 %14, label %_ZNKSt7__cxx1112basic_stringIcSt11char_traitsIcESaIcEE11_M_is_localEv.exit.thread.i.i.i.i.i.i.i, label %_ZNKSt7__cxx1112basic_stringIcSt11char_traitsIcESaIcEE11_M_is_localEv.exit.i.i.i.i.i.i.i

_ZNKSt7__cxx1112basic_stringIcSt11char_traitsIcESaIcEE11_M_is_localEv.exit.thread.i.i.i.i.i.i.i: ; preds = %.lr.ph.i.i.i.i
  %15 = getelementptr inbounds nuw i8, ptr %.05.i.i.i.i, i64 8
  %16 = load i64, ptr %15, align 8, !tbaa !14
  %17 = icmp ult i64 %16, 16
  call void @llvm.assume(i1 %17)
  br label %_ZSt8_DestroyINSt7__cxx1112basic_stringIcSt11char_traitsIcESaIcEEEEvPT_.exit.i.i.i.i

_ZNKSt7__cxx1112basic_stringIcSt11char_traitsIcESaIcEE11_M_is_localEv.exit.i.i.i.i.i.i.i: ; preds = %.lr.ph.i.i.i.i
  %18 = load i64, ptr %13, align 8, !tbaa !13
  %19 = add i64 %18, 1
  call void @_ZdlPvm(ptr noundef %12, i64 noundef %19) #31
  br label %_ZSt8_DestroyINSt7__cxx1112basic_stringIcSt11char_traitsIcESaIcEEEEvPT_.exit.i.i.i.i

_ZSt8_DestroyINSt7__cxx1112basic_stringIcSt11char_traitsIcESaIcEEEEvPT_.exit.i.i.i.i: ; preds = %_ZNKSt7__cxx1112basic_stringIcSt11char_traitsIcESaIcEE11_M_is_localEv.exit.i.i.i.i.i.i.i, %_ZNKSt7__cxx1112basic_stringIcSt11char_traitsIcESaIcEE11_M_is_localEv.exit.thread.i.i.i.i.i.i.i
  %20 = getelementptr inbounds nuw i8, ptr %.05.i.i.i.i, i64 32
  %.not.i.i.i.i = icmp eq ptr %20, %11
  br i1 %.not.i.i.i.i, label %_ZSt8_DestroyIPNSt7__cxx1112basic_stringIcSt11char_traitsIcESaIcEEES5_EvT_S7_RSaIT0_E.exitthread-pre-split.i, label %.lr.ph.i.i.i.i, !llvm.loop !19

_ZSt8_DestroyIPNSt7__cxx1112basic_stringIcSt11char_traitsIcESaIcEEES5_EvT_S7_RSaIT0_E.exitthread-pre-split.i: ; preds = %_ZSt8_DestroyINSt7__cxx1112basic_stringIcSt11char_traitsIcESaIcEEEEvPT_.exit.i.i.i.i
  %.pr.i = load ptr, ptr %7, align 8, !tbaa !15
  br label %_ZSt8_DestroyIPNSt7__cxx1112basic_stringIcSt11char_traitsIcESaIcEEES5_EvT_S7_RSaIT0_E.exit.i

_ZSt8_DestroyIPNSt7__cxx1112basic_stringIcSt11char_traitsIcESaIcEEES5_EvT_S7_RSaIT0_E.exit.i: ; preds = %_ZSt8_DestroyIPNSt7__cxx1112basic_stringIcSt11char_traitsIcESaIcEEES5_EvT_S7_RSaIT0_E.exitthread-pre-split.i, %8
  %21 = phi ptr [ %.pr.i, %_ZSt8_DestroyIPNSt7__cxx1112basic_stringIcSt11char_traitsIcESaIcEEES5_EvT_S7_RSaIT0_E.exitthread-pre-split.i ], [ %9, %8 ]
  %.not.i.i.i = icmp eq ptr %21, null
  br i1 %.not.i.i.i, label %_ZNSt6vectorINSt7__cxx1112basic_stringIcSt11char_traitsIcESaIcEEESaIS5_EED2Ev.exit, label %22

22:                                               ; preds = %_ZSt8_DestroyIPNSt7__cxx1112basic_stringIcSt11char_traitsIcESaIcEEES5_EvT_S7_RSaIT0_E.exit.i
  %23 = getelementptr inbounds nuw i8, ptr %7, i64 16
  %24 = load ptr, ptr %23, align 8, !tbaa !21
  %25 = ptrtoint ptr %24 to i64
  %26 = ptrtoint ptr %21 to i64
  %27 = sub i64 %25, %26
  call void @_ZdlPvm(ptr noundef nonnull %21, i64 noundef %27) #31
  br label %_ZNSt6vectorINSt7__cxx1112basic_stringIcSt11char_traitsIcESaIcEEESaIS5_EED2Ev.exit

_ZNSt6vectorINSt7__cxx1112basic_stringIcSt11char_traitsIcESaIcEEESaIS5_EED2Ev.exit: ; preds = %_ZSt8_DestroyIPNSt7__cxx1112basic_stringIcSt11char_traitsIcESaIcEEES5_EvT_S7_RSaIT0_E.exit.i, %22
  call void @llvm.lifetime.end.p0(i64 24, ptr nonnull %7) #30
  %28 = load ptr, ptr %6, align 8, !tbaa !15
  %29 = getelementptr inbounds nuw i8, ptr %6, i64 8
  %30 = load ptr, ptr %29, align 8, !tbaa !18
  %.not4.i.i.i.i6 = icmp eq ptr %28, %30
  br i1 %.not4.i.i.i.i6, label %_ZSt8_DestroyIPNSt7__cxx1112basic_stringIcSt11char_traitsIcESaIcEEES5_EvT_S7_RSaIT0_E.exit.i14, label %.lr.ph.i.i.i.i7

.lr.ph.i.i.i.i7:                                  ; preds = %_ZNSt6vectorINSt7__cxx1112basic_stringIcSt11char_traitsIcESaIcEEESaIS5_EED2Ev.exit, %_ZSt8_DestroyINSt7__cxx1112basic_stringIcSt11char_traitsIcESaIcEEEEvPT_.exit.i.i.i.i10
  %.05.i.i.i.i8 = phi ptr [ %39, %_ZSt8_DestroyINSt7__cxx1112basic_stringIcSt11char_traitsIcESaIcEEEEvPT_.exit.i.i.i.i10 ], [ %28, %_ZNSt6vectorINSt7__cxx1112basic_stringIcSt11char_traitsIcESaIcEEESaIS5_EED2Ev.exit ]
  %31 = load ptr, ptr %.05.i.i.i.i8, align 8, !tbaa !11
  %32 = getelementptr inbounds nuw i8, ptr %.05.i.i.i.i8, i64 16
  %33 = icmp eq ptr %31, %32
  br i1 %33, label %_ZNKSt7__cxx1112basic_stringIcSt11char_traitsIcESaIcEE11_M_is_localEv.exit.thread.i.i.i.i.i.i.i16, label %_ZNKSt7__cxx1112basic_stringIcSt11char_traitsIcESaIcEE11_M_is_localEv.exit.i.i.i.i.i.i.i9

_ZNKSt7__cxx1112basic_stringIcSt11char_traitsIcESaIcEE11_M_is_localEv.exit.thread.i.i.i.i.i.i.i16: ; preds = %.lr.ph.i.i.i.i7
  %34 = getelementptr inbounds nuw i8, ptr %.05.i.i.i.i8, i64 8
  %35 = load i64, ptr %34, align 8, !tbaa !14
  %36 = icmp ult i64 %35, 16
  call void @llvm.assume(i1 %36)
  br label %_ZSt8_DestroyINSt7__cxx1112basic_stringIcSt11char_traitsIcESaIcEEEEvPT_.exit.i.i.i.i10

_ZNKSt7__cxx1112basic_stringIcSt11char_traitsIcESaIcEE11_M_is_localEv.exit.i.i.i.i.i.i.i9: ; preds = %.lr.ph.i.i.i.i7
  %37 = load i64, ptr %32, align 8, !tbaa !13
  %38 = add i64 %37, 1
  call void @_ZdlPvm(ptr noundef %31, i64 noundef %38) #31
  br label %_ZSt8_DestroyINSt7__cxx1112basic_stringIcSt11char_traitsIcESaIcEEEEvPT_.exit.i.i.i.i10

_ZSt8_DestroyINSt7__cxx1112basic_stringIcSt11char_traitsIcESaIcEEEEvPT_.exit.i.i.i.i10: ; preds = %_ZNKSt7__cxx1112basic_stringIcSt11char_traitsIcESaIcEE11_M_is_localEv.exit.i.i.i.i.i.i.i9, %_ZNKSt7__cxx1112basic_stringIcSt11char_traitsIcESaIcEE11_M_is_localEv.exit.thread.i.i.i.i.i.i.i16
  %39 = getelementptr inbounds nuw i8, ptr %.05.i.i.i.i8, i64 32
  %.not.i.i.i.i11 = icmp eq ptr %39, %30
  br i1 %.not.i.i.i.i11, label %_ZSt8_DestroyIPNSt7__cxx1112basic_stringIcSt11char_traitsIcESaIcEEES5_EvT_S7_RSaIT0_E.exitthread-pre-split.i12, label %.lr.ph.i.i.i.i7, !llvm.loop !19

_ZSt8_DestroyIPNSt7__cxx1112basic_stringIcSt11char_traitsIcESaIcEEES5_EvT_S7_RSaIT0_E.exitthread-pre-split.i12: ; preds = %_ZSt8_DestroyINSt7__cxx1112basic_stringIcSt11char_traitsIcESaIcEEEEvPT_.exit.i.i.i.i10
  %.pr.i13 = load ptr, ptr %6, align 8, !tbaa !15
  br label %_ZSt8_DestroyIPNSt7__cxx1112basic_stringIcSt11char_traitsIcESaIcEEES5_EvT_S7_RSaIT0_E.exit.i14

_ZSt8_DestroyIPNSt7__cxx1112basic_stringIcSt11char_traitsIcESaIcEEES5_EvT_S7_RSaIT0_E.exit.i14: ; preds = %_ZSt8_DestroyIPNSt7__cxx1112basic_stringIcSt11char_traitsIcESaIcEEES5_EvT_S7_RSaIT0_E.exitthread-pre-split.i12, %_ZNSt6vectorINSt7__cxx1112basic_stringIcSt11char_traitsIcESaIcEEESaIS5_EED2Ev.exit
  %40 = phi ptr [ %.pr.i13, %_ZSt8_DestroyIPNSt7__cxx1112basic_stringIcSt11char_traitsIcESaIcEEES5_EvT_S7_RSaIT0_E.exitthread-pre-split.i12 ], [ %28, %_ZNSt6vectorINSt7__cxx1112basic_stringIcSt11char_traitsIcESaIcEEESaIS5_EED2Ev.exit ]
  %.not.i.i.i15 = icmp eq ptr %40, null
  br i1 %.not.i.i.i15, label %_ZNSt6vectorINSt7__cxx1112basic_stringIcSt11char_traitsIcESaIcEEESaIS5_EED2Ev.exit17, label %41

41:                                               ; preds = %_ZSt8_DestroyIPNSt7__cxx1112basic_stringIcSt11char_traitsIcESaIcEEES5_EvT_S7_RSaIT0_E.exit.i14
  %42 = getelementptr inbounds nuw i8, ptr %6, i64 16
  %43 = load ptr, ptr %42, align 8, !tbaa !21
  %44 = ptrtoint ptr %43 to i64
  %45 = ptrtoint ptr %40 to i64
  %46 = sub i64 %44, %45
  call void @_ZdlPvm(ptr noundef nonnull %40, i64 noundef %46) #31
  br label %_ZNSt6vectorINSt7__cxx1112basic_stringIcSt11char_traitsIcESaIcEEESaIS5_EED2Ev.exit17

_ZNSt6vectorINSt7__cxx1112basic_stringIcSt11char_traitsIcESaIcEEESaIS5_EED2Ev.exit17: ; preds = %_ZSt8_DestroyIPNSt7__cxx1112basic_stringIcSt11char_traitsIcESaIcEEES5_EvT_S7_RSaIT0_E.exit.i14, %41
  call void @llvm.lifetime.end.p0(i64 24, ptr nonnull %6) #30
  ret void

47:                                               ; preds = %5
  %48 = landingpad { ptr, i32 }
          cleanup
  call void @_ZNSt6vectorINSt7__cxx1112basic_stringIcSt11char_traitsIcESaIcEEESaIS5_EED2Ev(ptr noundef nonnull align 8 dereferenceable(24) %7) #30
  call void @llvm.lifetime.end.p0(i64 24, ptr nonnull %7) #30
  call void @_ZNSt6vectorINSt7__cxx1112basic_stringIcSt11char_traitsIcESaIcEEESaIS5_EED2Ev(ptr noundef nonnull align 8 dereferenceable(24) %6) #30
  call void @llvm.lifetime.end.p0(i64 24, ptr nonnull %6) #30
  invoke void @_ZN6casadi13GenericSharedINS_12SharedObjectENS_20SharedObjectInternalEE10count_downEv(ptr noundef nonnull align 8 dereferenceable(8) %0)
          to label %_ZN6casadi13GenericSharedINS_12SharedObjectENS_20SharedObjectInternalEED2Ev.exit unwind label %49

49:                                               ; preds = %47
  %50 = landingpad { ptr, i32 }
          catch ptr null
  %51 = extractvalue { ptr, i32 } %50, 0
  call void @__clang_call_terminate(ptr %51) #32
  unreachable

_ZN6casadi13GenericSharedINS_12SharedObjectENS_20SharedObjectInternalEED2Ev.exit: ; preds = %47
  resume { ptr, i32 } %48
}